target datalayout = "e-m:e-p270:32:32-p271:32:32-p272:64:64-i64:64-i128:128-f80:128-n8:16:32:64-S128"
target triple = "x86_64-unknown-linux-gnu"

%struct.dirent = type { i64, i64, i16, i8, [256 x i8] }

; Function Attrs: nounwind uwtable
define internal i32 @uv__fs_scandir_sort(ptr noundef %a, ptr noundef %b) #0 {
entry:
  %a.addr = alloca ptr, align 8
  %b.addr = alloca ptr, align 8
  store ptr %a, ptr %a.addr, align 8
  store ptr %b, ptr %b.addr, align 8
  %0 = load ptr, ptr %a.addr, align 8
  %1 = load ptr, ptr %0, align 8
  %d_name = getelementptr inbounds %struct.dirent, ptr %1, i32 0, i32 4
  %arraydecay = getelementptr inbounds [256 x i8], ptr %d_name, i64 0, i64 0
  %2 = load ptr, ptr %b.addr, align 8
  %3 = load ptr, ptr %2, align 8
  %d_name1 = getelementptr inbounds %struct.dirent, ptr %3, i32 0, i32 4
  %arraydecay2 = getelementptr inbounds [256 x i8], ptr %d_name1, i64 0, i64 0
  %call = call i32 @strcmp(ptr noundef %arraydecay, ptr noundef %arraydecay2) #10
  ret i32 %call
}