; Function Attrs: mustprogress nofree nounwind willreturn memory(read, inaccessiblemem: none) uwtable
define internal i32 @uv__fs_scandir_sort(ptr noundef readonly captures(none) %a, ptr noundef readonly captures(none) %b) #10 {
entry:
  %0 = load ptr, ptr %a, align 8
  %d_name = getelementptr inbounds nuw i8, ptr %0, i64 19
  %1 = load ptr, ptr %b, align 8
  %d_name1 = getelementptr inbounds nuw i8, ptr %1, i64 19
  %call = tail call i32 @strcmp(ptr noundef nonnull dereferenceable(1) %d_name, ptr noundef nonnull dereferenceable(1) %d_name1) #17
  ret i32 %call
}